target datalayout = "e-m:e-p270:32:32-p271:32:32-p272:64:64-i64:64-i128:128-f80:128-n8:16:32:64-S128"
target triple = "x86_64-pc-linux-gnu"

%struct.squeue_parameters = type { i8, i8, i8, i8, i8, i8, i32, i8, i8, i8, i8, i8, i8, i8, i8, i8, i8, i32, ptr, ptr, i32, ptr, ptr, ptr, ptr, ptr, ptr, ptr, ptr, i8, ptr, ptr, ptr, ptr, ptr, ptr, ptr, ptr, i32, i32, i32, ptr, ptr, ptr, ptr, ptr, ptr, ptr, ptr, ptr, ptr }
%struct.log_options_t = type { i32, i32, i32, i8, i8, i8, i32 }
%struct.winsize = type { i16, i16, i16, i16 }
%struct.slurmdb_cluster_rec = type { ptr, i16, i64, %struct.sockaddr_storage, ptr, i32, i16, ptr, i16, %struct.slurmdb_cluster_fed_t, i32, %union.pthread_mutex_t, ptr, ptr, ptr, i16, ptr, ptr }
%struct.sockaddr_storage = type { i16, [118 x i8], i64 }
%struct.slurmdb_cluster_fed_t = type { ptr, i32, ptr, ptr, ptr, i32, i8, i8 }
%union.pthread_mutex_t = type { %struct.__pthread_mutex_s }
%struct.__pthread_mutex_s = type { i32, i32, i32, i32, i32, i16, i16, %struct.__pthread_internal_list }
%struct.__pthread_internal_list = type { ptr, ptr }

@__const.main.opts = private unnamed_addr constant { i32, i32, i32, i8, i8, i8, i8, i32 } { i32 3, i32 0, i32 0, i8 1, i8 0, i8 0, i8 0, i32 0 }, align 4
@params = dso_local global %struct.squeue_parameters zeroinitializer, align 8
@max_line_size = dso_local global i32 0, align 4
@working_cluster_rec = external global ptr, align 8
@.str = private unnamed_addr constant [2 x i8] c"\0A\00", align 1
@.str.1 = private unnamed_addr constant [13 x i8] c"CLUSTER: %s\0A\00", align 1

; Function Attrs: nounwind uwtable
define internal i32 @_multi_cluster(ptr noundef %0, i32 noundef %1, ptr noundef %2) #0 {
  %4 = alloca ptr, align 8
  %5 = alloca i32, align 4
  %6 = alloca ptr, align 8
  %7 = alloca ptr, align 8
  %8 = alloca i8, align 1
  %9 = alloca i8, align 1
  %10 = alloca i32, align 4
  %11 = alloca i32, align 4
  store ptr %0, ptr %4, align 8
  store i32 %1, ptr %5, align 4
  store ptr %2, ptr %6, align 8
  call void @llvm.lifetime.start.p0(i64 8, ptr %7) #10
  call void @llvm.lifetime.start.p0(i64 1, ptr %8) #10
  store i8 0, ptr %8, align 1
  call void @llvm.lifetime.start.p0(i64 1, ptr %9) #10
  store i8 1, ptr %9, align 1
  call void @llvm.lifetime.start.p0(i64 4, ptr %10) #10
  store i32 0, ptr %10, align 4
  call void @llvm.lifetime.start.p0(i64 4, ptr %11) #10
  %12 = load ptr, ptr %4, align 8
  %13 = call i32 @list_count(ptr noundef %12)
  %14 = icmp sgt i32 %13, 1
  br i1 %14, label %15, label %19

15:                                               ; preds = %3
  %16 = load i8, ptr getelementptr inbounds nuw (%struct.squeue_parameters, ptr @params, i32 0, i32 15), align 4, !range !8, !noundef !9
  %17 = trunc i8 %16 to i1
  br i1 %17, label %18, label %19

18:                                               ; preds = %15
  store i8 1, ptr %8, align 1
  br label %19

19:                                               ; preds = %18, %15, %3
  %20 = load ptr, ptr %4, align 8
  %21 = call ptr @list_iterator_create(ptr noundef %20)
  store ptr %21, ptr %7, align 8
  br label %22

22:                                               ; preds = %49, %19
  %23 = load ptr, ptr %7, align 8
  %24 = call ptr @list_next(ptr noundef %23)
  store ptr %24, ptr @working_cluster_rec, align 8
  %25 = icmp ne ptr %24, null
  br i1 %25, label %26, label %50

26:                                               ; preds = %22
  %27 = load i8, ptr getelementptr inbounds nuw (%struct.squeue_parameters, ptr @params, i32 0, i32 15), align 4, !range !8, !noundef !9
  %28 = trunc i8 %27 to i1
  br i1 %28, label %40, label %29

29:                                               ; preds = %26
  %30 = load i8, ptr %9, align 1, !range !8, !noundef !9
  %31 = trunc i8 %30 to i1
  br i1 %31, label %32, label %33

32:                                               ; preds = %29
  store i8 0, ptr %9, align 1
  br label %35

33:                                               ; preds = %29
  %34 = call i32 (ptr, ...) @printf(ptr noundef @.str)
  br label %35

35:                                               ; preds = %33, %32
  %36 = load ptr, ptr @working_cluster_rec, align 8
  %37 = getelementptr inbounds nuw %struct.slurmdb_cluster_rec, ptr %36, i32 0, i32 12
  %38 = load ptr, ptr %37, align 8
  %39 = call i32 (ptr, ...) @printf(ptr noundef @.str.1, ptr noundef %38)
  br label %40

40:                                               ; preds = %35, %26
  %41 = load i8, ptr %8, align 1, !range !8, !noundef !9
  %42 = trunc i8 %41 to i1
  %43 = load i32, ptr %5, align 4
  %44 = load ptr, ptr %6, align 8
  %45 = call i32 @_get_info(i1 noundef zeroext true, i1 noundef zeroext %42, i32 noundef %43, ptr noundef %44)
  store i32 %45, ptr %11, align 4
  %46 = load i32, ptr %11, align 4
  %47 = icmp ne i32 %46, 0
  br i1 %47, label %48, label %49

48:                                               ; preds = %40
  store i32 1, ptr %10, align 4
  br label %49

49:                                               ; preds = %48, %40
  br label %22, !llvm.loop !12

50:                                               ; preds = %22
  %51 = load ptr, ptr %7, align 8
  call void @list_iterator_destroy(ptr noundef %51)
  %52 = load i32, ptr %10, align 4
  call void @llvm.lifetime.end.p0(i64 4, ptr %11) #10
  call void @llvm.lifetime.end.p0(i64 4, ptr %10) #10
  call void @llvm.lifetime.end.p0(i64 1, ptr %9) #10
  call void @llvm.lifetime.end.p0(i64 1, ptr %8) #10
  call void @llvm.lifetime.end.p0(i64 8, ptr %7) #10
  ret i32 %52
}

; Function Attrs: nounwind uwtable
define internal i32 @_get_window_width() #0 {
  %1 = alloca i32, align 4
  %2 = alloca %struct.winsize, align 2
  call void @llvm.lifetime.start.p0(i64 4, ptr %1) #10
  store i32 80, ptr %1, align 4
  call void @llvm.lifetime.start.p0(i64 8, ptr %2) #10
  %3 = call i32 (i32, i64, ...) @ioctl(i32 noundef 1, i64 noundef 21523, ptr noundef %2) #10
  %4 = icmp eq i32 %3, 0
  br i1 %4, label %5, label %9

5:                                                ; preds = %0
  %6 = getelementptr inbounds nuw %struct.winsize, ptr %2, i32 0, i32 1
  %7 = load i16, ptr %6, align 2
  %8 = zext i16 %7 to i32
  store i32 %8, ptr %1, align 4
  br label %9

9:                                                ; preds = %5, %0
  %10 = load i32, ptr %1, align 4
  call void @llvm.lifetime.end.p0(i64 8, ptr %2) #10
  call void @llvm.lifetime.end.p0(i64 4, ptr %1) #10
  ret i32 %10
}

; Function Attrs: nounwind uwtable
define dso_local i32 @main(i32 noundef %0, ptr noundef %1) #0 {
  %3 = alloca i32, align 4
  %4 = alloca i32, align 4
  %5 = alloca ptr, align 8
  %6 = alloca %struct.log_options_t, align 8
  %7 = alloca i32, align 4
  store i32 0, ptr %3, align 4
  store i32 %0, ptr %4, align 4
  store ptr %1, ptr %5, align 8
  call void @llvm.lifetime.start.p0(i64 20, ptr %6) #10
  call void @llvm.memcpy.p0.p0.i64(ptr align 4 %6, ptr align 4 @__const.main.opts, i64 20, i1 false)
  call void @llvm.lifetime.start.p0(i64 4, ptr %7) #10
  store i32 0, ptr %7, align 4
  call void @slurm_init(ptr noundef null)
  %8 = load ptr, ptr %5, align 8
  %9 = getelementptr inbounds ptr, ptr %8, i64 0
  %10 = load ptr, ptr %9, align 8
  %11 = call ptr @xbasename(ptr noundef %10)
  %12 = call i32 @log_init(ptr noundef %11, ptr noundef byval(%struct.log_options_t) align 8 %6, i32 noundef 8, ptr noundef null)
  %13 = load i32, ptr %4, align 4
  %14 = load ptr, ptr %5, align 8
  call void @parse_command_line(i32 noundef %13, ptr noundef %14)
  %15 = load i32, ptr getelementptr inbounds nuw (%struct.squeue_parameters, ptr @params, i32 0, i32 17), align 8
  %16 = icmp ne i32 %15, 0
  br i1 %16, label %17, label %23

17:                                               ; preds = %2
  %18 = load i32, ptr getelementptr inbounds nuw (%struct.squeue_parameters, ptr @params, i32 0, i32 17), align 8
  %19 = getelementptr inbounds nuw %struct.log_options_t, ptr %6, i32 0, i32 0
  %20 = load i32, ptr %19, align 4
  %21 = add i32 %20, %18
  store i32 %21, ptr %19, align 4
  %22 = call i32 @log_alter(ptr noundef byval(%struct.log_options_t) align 8 %6, i32 noundef 8, ptr noundef null)
  br label %23

23:                                               ; preds = %17, %2
  %24 = call i32 @_get_window_width()
  store i32 %24, ptr @max_line_size, align 4
  %25 = load ptr, ptr getelementptr inbounds nuw (%struct.squeue_parameters, ptr @params, i32 0, i32 19), align 8
  %26 = icmp ne ptr %25, null
  br i1 %26, label %27, label %30

27:                                               ; preds = %23
  %28 = load ptr, ptr getelementptr inbounds nuw (%struct.squeue_parameters, ptr @params, i32 0, i32 19), align 8
  %29 = call ptr @list_peek(ptr noundef %28)
  store ptr %29, ptr @working_cluster_rec, align 8
  br label %30

30:                                               ; preds = %27, %23
  br label %31

31:                                               ; preds = %71, %30
  br label %32

32:                                               ; preds = %31
  %33 = load i8, ptr getelementptr inbounds nuw (%struct.squeue_parameters, ptr @params, i32 0, i32 15), align 4, !range !8, !noundef !9
  %34 = trunc i8 %33 to i1
  br i1 %34, label %45, label %35

35:                                               ; preds = %32
  %36 = load i32, ptr getelementptr inbounds nuw (%struct.squeue_parameters, ptr @params, i32 0, i32 6), align 8
  %37 = icmp ne i32 %36, 0
  br i1 %37, label %44, label %38

38:                                               ; preds = %35
  %39 = load i32, ptr getelementptr inbounds nuw (%struct.squeue_parameters, ptr @params, i32 0, i32 17), align 8
  %40 = icmp ne i32 %39, 0
  br i1 %40, label %44, label %41

41:                                               ; preds = %38
  %42 = load i8, ptr getelementptr inbounds nuw (%struct.squeue_parameters, ptr @params, i32 0, i32 14), align 1, !range !8, !noundef !9
  %43 = trunc i8 %42 to i1
  br i1 %43, label %44, label %45

44:                                               ; preds = %41, %38, %35
  call void @print_date()
  br label %45

45:                                               ; preds = %44, %41, %32
  %46 = load ptr, ptr getelementptr inbounds nuw (%struct.squeue_parameters, ptr @params, i32 0, i32 19), align 8
  %47 = icmp ne ptr %46, null
  br i1 %47, label %55, label %48

48:                                               ; preds = %45
  %49 = load i32, ptr %4, align 4
  %50 = load ptr, ptr %5, align 8
  %51 = call i32 @_get_info(i1 noundef zeroext false, i1 noundef zeroext false, i32 noundef %49, ptr noundef %50)
  %52 = icmp ne i32 %51, 0
  br i1 %52, label %53, label %54

53:                                               ; preds = %48
  store i32 1, ptr %7, align 4
  br label %54

54:                                               ; preds = %53, %48
  br label %63

55:                                               ; preds = %45
  %56 = load ptr, ptr getelementptr inbounds nuw (%struct.squeue_parameters, ptr @params, i32 0, i32 19), align 8
  %57 = load i32, ptr %4, align 4
  %58 = load ptr, ptr %5, align 8
  %59 = call i32 @_multi_cluster(ptr noundef %56, i32 noundef %57, ptr noundef %58)
  %60 = icmp ne i32 %59, 0
  br i1 %60, label %61, label %62

61:                                               ; preds = %55
  store i32 1, ptr %7, align 4
  br label %62

62:                                               ; preds = %61, %55
  br label %63

63:                                               ; preds = %62, %54
  %64 = load i32, ptr getelementptr inbounds nuw (%struct.squeue_parameters, ptr @params, i32 0, i32 6), align 8
  %65 = icmp ne i32 %64, 0
  br i1 %65, label %66, label %70

66:                                               ; preds = %63
  %67 = call i32 (ptr, ...) @printf(ptr noundef @.str)
  %68 = load i32, ptr getelementptr inbounds nuw (%struct.squeue_parameters, ptr @params, i32 0, i32 6), align 8
  %69 = call i32 @sleep(i32 noundef %68)
  br label %71

70:                                               ; preds = %63
  br label %72

71:                                               ; preds = %66
  br label %31, !llvm.loop !10

72:                                               ; preds = %70
  %73 = load i32, ptr %7, align 4
  %74 = icmp ne i32 %73, 0
  br i1 %74, label %75, label %77

75:                                               ; preds = %72
  %76 = load i32, ptr %7, align 4
  call void @exit(i32 noundef %76) #11
  unreachable

77:                                               ; preds = %72
  call void @exit(i32 noundef 0) #11
  unreachable
}