; Function Attrs: noreturn nounwind uwtable
define dso_local noundef i32 @main(i32 noundef %0, ptr noundef %1) local_unnamed_addr #0 {
  %3 = alloca %struct.winsize, align 2
  %4 = alloca %struct.log_options_t, align 8
  call void @llvm.lifetime.start.p0(i64 20, ptr nonnull %4) #14
  call void @llvm.memcpy.p0.p0.i64(ptr noundef nonnull align 8 dereferenceable(20) %4, ptr noundef nonnull align 8 dereferenceable(20) @__const.main.opts, i64 20, i1 false)
  tail call void @slurm_init(ptr noundef null) #14
  %5 = load ptr, ptr %1, align 8
  %6 = tail call ptr @xbasename(ptr noundef %5) #14
  %7 = tail call i32 @log_init(ptr noundef %6, ptr noundef nonnull byval(%struct.log_options_t) align 8 @__const.main.opts, i32 noundef 8, ptr noundef null) #14
  tail call void @parse_command_line(i32 noundef %0, ptr noundef nonnull %1) #14
  %8 = load i32, ptr getelementptr inbounds nuw (i8, ptr @params, i64 24), align 8
  %.not = icmp eq i32 %8, 0
  br i1 %.not, label %12, label %9

9:                                                ; preds = %2
  %10 = add i32 %8, 3
  store i32 %10, ptr %4, align 8
  %11 = tail call i32 @log_alter(ptr noundef nonnull byval(%struct.log_options_t) align 8 %4, i32 noundef 8, ptr noundef null) #14
  br label %12

12:                                               ; preds = %9, %2
  call void @llvm.lifetime.start.p0(i64 8, ptr nonnull %3) #14
  %13 = call i32 (i32, i64, ...) @ioctl(i32 noundef 1, i64 noundef 21523, ptr noundef nonnull %3) #14
  %14 = icmp eq i32 %13, 0
  %15 = getelementptr inbounds nuw i8, ptr %3, i64 2
  %16 = load i16, ptr %15, align 2
  %17 = zext i16 %16 to i32
  %.0.i = select i1 %14, i32 %17, i32 80
  call void @llvm.lifetime.end.p0(i64 8, ptr nonnull %3) #14
  store i32 %.0.i, ptr @max_line_size, align 4
  %18 = load ptr, ptr getelementptr inbounds nuw (i8, ptr @params, i64 40), align 8
  %.not12 = icmp eq ptr %18, null
  br i1 %.not12, label %.preheader, label %19

19:                                               ; preds = %12
  %20 = call ptr @list_peek(ptr noundef nonnull %18) #14
  store ptr %20, ptr @working_cluster_rec, align 8
  br label %.preheader

.preheader:                                       ; preds = %19, %12
  br label %21

21:                                               ; preds = %.preheader, %60
  %.0 = phi i32 [ %.125, %60 ], [ 0, %.preheader ]
  %22 = load i8, ptr getelementptr inbounds nuw (i8, ptr @params, i64 20), align 4, !range !8, !noundef !9
  %23 = trunc nuw i8 %22 to i1
  br i1 %23, label %33, label %24

24:                                               ; preds = %21
  %25 = load i32, ptr getelementptr inbounds nuw (i8, ptr @params, i64 8), align 8
  %26 = icmp ne i32 %25, 0
  %27 = load i32, ptr getelementptr inbounds nuw (i8, ptr @params, i64 24), align 8
  %28 = icmp ne i32 %27, 0
  %or.cond = select i1 %26, i1 true, i1 %28
  br i1 %or.cond, label %32, label %29

29:                                               ; preds = %24
  %30 = load i8, ptr getelementptr inbounds nuw (i8, ptr @params, i64 19), align 1, !range !8, !noundef !9
  %31 = trunc nuw i8 %30 to i1
  br i1 %31, label %32, label %33

32:                                               ; preds = %29, %24
  call void @print_date() #14
  br label %33

33:                                               ; preds = %32, %29, %21
  %34 = load ptr, ptr getelementptr inbounds nuw (i8, ptr @params, i64 40), align 8
  %.not13 = icmp eq ptr %34, null
  br i1 %.not13, label %35, label %37

35:                                               ; preds = %33
  %36 = call fastcc i32 @_get_info(i1 noundef zeroext false, i1 noundef zeroext false, i32 noundef %0, ptr noundef nonnull %1)
  %.not14 = icmp eq i32 %36, 0
  %spec.select = select i1 %.not14, i32 %.0, i32 1
  br label %57

37:                                               ; preds = %33
  %38 = call i32 @list_count(ptr noundef nonnull %34) #14
  %39 = icmp sgt i32 %38, 1
  %40 = load i8, ptr getelementptr inbounds nuw (i8, ptr @params, i64 20), align 4, !range !8
  %41 = trunc nuw i8 %40 to i1
  %.0.i19 = select i1 %39, i1 %41, i1 false
  %42 = call ptr @list_iterator_create(ptr noundef nonnull %34) #14
  %43 = call ptr @list_next(ptr noundef %42) #14
  store ptr %43, ptr @working_cluster_rec, align 8
  %.not14.i = icmp eq ptr %43, null
  br i1 %.not14.i, label %_multi_cluster.exit.thread, label %.lr.ph.i

_multi_cluster.exit.thread:                       ; preds = %37
  call void @list_iterator_destroy(ptr noundef %42) #14
  br label %57

.lr.ph.i:                                         ; preds = %37, %54
  %44 = phi ptr [ %56, %54 ], [ %43, %37 ]
  %.0916.i = phi i32 [ %spec.select13.i, %54 ], [ 0, %37 ]
  %.01015.i = phi i1 [ %.111.i, %54 ], [ true, %37 ]
  %45 = load i8, ptr getelementptr inbounds nuw (i8, ptr @params, i64 20), align 4, !range !8, !noundef !9
  %46 = trunc nuw i8 %45 to i1
  br i1 %46, label %54, label %47

47:                                               ; preds = %.lr.ph.i
  br i1 %.01015.i, label %49, label %48

48:                                               ; preds = %47
  %putchar.i = call i32 @putchar(i32 10)
  %.pre.i = load ptr, ptr @working_cluster_rec, align 8
  br label %49

49:                                               ; preds = %48, %47
  %50 = phi ptr [ %44, %47 ], [ %.pre.i, %48 ]
  %51 = getelementptr inbounds nuw i8, ptr %50, i64 280
  %52 = load ptr, ptr %51, align 8
  %53 = call i32 (ptr, ...) @printf(ptr noundef nonnull dereferenceable(1) @.str.1, ptr noundef %52)
  br label %54

54:                                               ; preds = %49, %.lr.ph.i
  %.111.i = phi i1 [ %.01015.i, %.lr.ph.i ], [ false, %49 ]
  %55 = call fastcc i32 @_get_info(i1 noundef zeroext true, i1 noundef zeroext %.0.i19, i32 noundef %0, ptr noundef nonnull %1)
  %.fr = freeze i32 %55
  %.not12.i = icmp eq i32 %.fr, 0
  %spec.select13.i = select i1 %.not12.i, i32 %.0916.i, i32 1
  %56 = call ptr @list_next(ptr noundef %42) #14
  store ptr %56, ptr @working_cluster_rec, align 8
  %.not.i = icmp eq ptr %56, null
  br i1 %.not.i, label %_multi_cluster.exit, label %.lr.ph.i, !llvm.loop !10

_multi_cluster.exit:                              ; preds = %54
  call void @list_iterator_destroy(ptr noundef %42) #14
  %.not15 = icmp eq i32 %spec.select13.i, 0
  br i1 %.not15, label %57, label %.thread

57:                                               ; preds = %_multi_cluster.exit, %_multi_cluster.exit.thread, %35
  %.1 = phi i32 [ %spec.select, %35 ], [ %.0, %_multi_cluster.exit.thread ], [ %.0, %_multi_cluster.exit ]
  %58 = load i32, ptr getelementptr inbounds nuw (i8, ptr @params, i64 8), align 8
  %.not16 = icmp eq i32 %58, 0
  br i1 %.not16, label %63, label %60

.thread:                                          ; preds = %_multi_cluster.exit
  %59 = load i32, ptr getelementptr inbounds nuw (i8, ptr @params, i64 8), align 8
  %.not1624 = icmp eq i32 %59, 0
  br i1 %.not1624, label %.thread27, label %60

60:                                               ; preds = %.thread, %57
  %.125 = phi i32 [ 1, %.thread ], [ %.1, %57 ]
  %putchar = call i32 @putchar(i32 10)
  %61 = load i32, ptr getelementptr inbounds nuw (i8, ptr @params, i64 8), align 8
  %62 = call i32 @sleep(i32 noundef %61) #14
  br label %21, !llvm.loop !13

63:                                               ; preds = %57
  %.not17 = icmp eq i32 %.1, 0
  br i1 %.not17, label %64, label %.thread27

.thread27:                                        ; preds = %.thread, %63
  call void @exit(i32 noundef 1) #15
  unreachable

64:                                               ; preds = %63
  call void @exit(i32 noundef 0) #16
  unreachable
}